; Function Attrs: mustprogress nounwind uwtable
define internal void @_ZN9grpc_core12_GLOBAL__N_18RingHash4RingD2Ev(ptr nocapture noundef nonnull align 8 dereferenceable(40) %this) unnamed_addr #4 align 2 personality ptr @__gxx_personality_v0 {
entry:
  store ptr getelementptr inbounds ({ [4 x ptr] }, ptr @_ZTVN9grpc_core12_GLOBAL__N_18RingHash4RingE, i64 0, i32 0, i64 2), ptr %this, align 8
  %ring_ = getelementptr inbounds i8, ptr %this, i64 16
  %ring_.val = load ptr, ptr %ring_, align 8
  %tobool.not.i.i.i = icmp eq ptr %ring_.val, null
  br i1 %tobool.not.i.i.i, label %_ZNSt6vectorIN9grpc_core12_GLOBAL__N_18RingHash4Ring9RingEntryESaIS4_EED2Ev.exit, label %if.then.i.i.i

if.then.i.i.i:                                    ; preds = %entry
  tail call void @_ZdlPv(ptr noundef nonnull %ring_.val) #25
  br label %_ZNSt6vectorIN9grpc_core12_GLOBAL__N_18RingHash4Ring9RingEntryESaIS4_EED2Ev.exit

_ZNSt6vectorIN9grpc_core12_GLOBAL__N_18RingHash4Ring9RingEntryESaIS4_EED2Ev.exit: ; preds = %entry, %if.then.i.i.i
  ret void
}